target datalayout = "e-m:e-p270:32:32-p271:32:32-p272:64:64-i64:64-i128:128-f80:128-n8:16:32:64-S128"
target triple = "x86_64-pc-linux-gnu"

%struct.TuplesortPublic = type { ptr, ptr, ptr, ptr, ptr, ptr, ptr, ptr, ptr, i8, i32, ptr, ptr, i32, i8, ptr }
%struct.SortTuple = type { ptr, i64, i8, i32 }
%struct.BrinSortTuple = type { i64, %struct.BrinTuple }
%struct.BrinTuple = type { i32, i8 }

@CurrentMemoryContext = external global ptr, align 8

; Function Attrs: inlinehint nounwind uwtable
define internal ptr @MemoryContextSwitchTo(ptr noundef %0) #3 {
  %2 = alloca ptr, align 8
  %3 = alloca ptr, align 8
  store ptr %0, ptr %2, align 8
  call void @llvm.lifetime.start.p0(i64 8, ptr %3) #6
  %4 = load ptr, ptr @CurrentMemoryContext, align 8
  store ptr %4, ptr %3, align 8
  %5 = load ptr, ptr %2, align 8
  store ptr %5, ptr @CurrentMemoryContext, align 8
  %6 = load ptr, ptr %3, align 8
  call void @llvm.lifetime.end.p0(i64 8, ptr %3) #6
  ret ptr %6
}

; Function Attrs: nounwind uwtable
define dso_local ptr @tuplesort_getbrintuple(ptr noundef %0, ptr noundef %1, i1 noundef zeroext %2) #0 {
  %4 = alloca ptr, align 8
  %5 = alloca ptr, align 8
  %6 = alloca ptr, align 8
  %7 = alloca i8, align 1
  %8 = alloca ptr, align 8
  %9 = alloca ptr, align 8
  %10 = alloca %struct.SortTuple, align 8
  %11 = alloca ptr, align 8
  %12 = alloca i32, align 4
  store ptr %0, ptr %5, align 8
  store ptr %1, ptr %6, align 8
  %13 = zext i1 %2 to i8
  store i8 %13, ptr %7, align 1
  call void @llvm.lifetime.start.p0(i64 8, ptr %8) #6
  %14 = load ptr, ptr %5, align 8
  store ptr %14, ptr %8, align 8
  call void @llvm.lifetime.start.p0(i64 8, ptr %9) #6
  %15 = load ptr, ptr %8, align 8
  %16 = getelementptr inbounds nuw %struct.TuplesortPublic, ptr %15, i32 0, i32 7
  %17 = load ptr, ptr %16, align 8
  %18 = call ptr @MemoryContextSwitchTo(ptr noundef %17)
  store ptr %18, ptr %9, align 8
  call void @llvm.lifetime.start.p0(i64 24, ptr %10) #6
  call void @llvm.lifetime.start.p0(i64 8, ptr %11) #6
  %19 = load ptr, ptr %5, align 8
  %20 = load i8, ptr %7, align 1, !range !4, !noundef !5
  %21 = trunc i8 %20 to i1
  %22 = call zeroext i1 @tuplesort_gettuple_common(ptr noundef %19, i1 noundef zeroext %21, ptr noundef %10)
  br i1 %22, label %25, label %23

23:                                               ; preds = %3
  %24 = getelementptr inbounds nuw %struct.SortTuple, ptr %10, i32 0, i32 0
  store ptr null, ptr %24, align 8
  br label %25

25:                                               ; preds = %23, %3
  %26 = load ptr, ptr %9, align 8
  %27 = call ptr @MemoryContextSwitchTo(ptr noundef %26)
  %28 = getelementptr inbounds nuw %struct.SortTuple, ptr %10, i32 0, i32 0
  %29 = load ptr, ptr %28, align 8
  %30 = icmp ne ptr %29, null
  br i1 %30, label %32, label %31

31:                                               ; preds = %25
  store ptr null, ptr %4, align 8
  store i32 1, ptr %12, align 4
  br label %41

32:                                               ; preds = %25
  %33 = getelementptr inbounds nuw %struct.SortTuple, ptr %10, i32 0, i32 0
  %34 = load ptr, ptr %33, align 8
  store ptr %34, ptr %11, align 8
  %35 = load ptr, ptr %11, align 8
  %36 = getelementptr inbounds nuw %struct.BrinSortTuple, ptr %35, i32 0, i32 0
  %37 = load i64, ptr %36, align 8
  %38 = load ptr, ptr %6, align 8
  store i64 %37, ptr %38, align 8
  %39 = load ptr, ptr %11, align 8
  %40 = getelementptr inbounds nuw %struct.BrinSortTuple, ptr %39, i32 0, i32 1
  store ptr %40, ptr %4, align 8
  store i32 1, ptr %12, align 4
  br label %41

41:                                               ; preds = %32, %31
  call void @llvm.lifetime.end.p0(i64 8, ptr %11) #6
  call void @llvm.lifetime.end.p0(i64 24, ptr %10) #6
  call void @llvm.lifetime.end.p0(i64 8, ptr %9) #6
  call void @llvm.lifetime.end.p0(i64 8, ptr %8) #6
  %42 = load ptr, ptr %4, align 8
  ret ptr %42
}