; Function Attrs: nounwind uwtable
define dso_local ptr @tuplesort_getbrintuple(ptr noundef %0, ptr noundef writeonly captures(none) %1, i1 noundef zeroext %2) local_unnamed_addr #0 {
  %4 = alloca %struct.SortTuple, align 8
  %5 = getelementptr inbounds nuw i8, ptr %0, i64 56
  %6 = load ptr, ptr %5, align 8
  %7 = load ptr, ptr @CurrentMemoryContext, align 8
  store ptr %6, ptr @CurrentMemoryContext, align 8
  call void @llvm.lifetime.start.p0(i64 24, ptr nonnull %4) #12
  %8 = call zeroext i1 @tuplesort_gettuple_common(ptr noundef %0, i1 noundef zeroext %2, ptr noundef nonnull %4) #12
  br i1 %8, label %9, label %.thread

.thread:                                          ; preds = %3
  store ptr %7, ptr @CurrentMemoryContext, align 8
  br label %13

9:                                                ; preds = %3
  %.pr = load ptr, ptr %4, align 8
  store ptr %7, ptr @CurrentMemoryContext, align 8
  %.not = icmp eq ptr %.pr, null
  br i1 %.not, label %13, label %10

10:                                               ; preds = %9
  %11 = load i64, ptr %.pr, align 8
  store i64 %11, ptr %1, align 8
  %12 = getelementptr inbounds nuw i8, ptr %.pr, i64 8
  br label %13

13:                                               ; preds = %.thread, %9, %10
  %.0 = phi ptr [ %12, %10 ], [ null, %9 ], [ null, %.thread ]
  call void @llvm.lifetime.end.p0(i64 24, ptr nonnull %4) #12
  ret ptr %.0
}